target datalayout = "e-m:e-p270:32:32-p271:32:32-p272:64:64-i64:64-i128:128-f80:128-n8:16:32:64-S128"
target triple = "x86_64-unknown-linux-gnu"

@stdin = external global ptr, align 8
@.str = private unnamed_addr constant [28 x i8] c"Reading from standard input\00", align 1

; Function Attrs: nounwind uwtable
define dso_local ptr @readArgFromStdin() #0 {
entry:
  %buf = alloca [1024 x i8], align 16
  %arg = alloca ptr, align 8
  %nread = alloca i32, align 4
  %call = call ptr @hi_sdsempty()
  store ptr %call, ptr %arg, align 8
  br label %while.body

while.body:                                       ; preds = %if.end7, %entry
  %0 = load ptr, ptr @stdin, align 8
  %call1 = call i32 @fileno(ptr noundef %0) #7
  %arraydecay = getelementptr inbounds [1024 x i8], ptr %buf, i64 0, i64 0
  %call2 = call i64 @read(i32 noundef %call1, ptr noundef %arraydecay, i64 noundef 1024)
  %conv = trunc i64 %call2 to i32
  store i32 %conv, ptr %nread, align 4
  %1 = load i32, ptr %nread, align 4
  %cmp = icmp eq i32 %1, 0
  br i1 %cmp, label %if.then, label %if.else

if.then:                                          ; preds = %while.body
  br label %while.end

if.else:                                          ; preds = %while.body
  %2 = load i32, ptr %nread, align 4
  %cmp4 = icmp eq i32 %2, -1
  br i1 %cmp4, label %if.then6, label %if.end

if.then6:                                         ; preds = %if.else
  call void @perror(ptr noundef @.str)
  call void @exit(i32 noundef 1) #8
  unreachable

if.end:                                           ; preds = %if.else
  br label %if.end7

if.end7:                                          ; preds = %if.end
  %3 = load ptr, ptr %arg, align 8
  %arraydecay8 = getelementptr inbounds [1024 x i8], ptr %buf, i64 0, i64 0
  %4 = load i32, ptr %nread, align 4
  %conv9 = sext i32 %4 to i64
  %call10 = call ptr @hi_sdscatlen(ptr noundef %3, ptr noundef %arraydecay8, i64 noundef %conv9)
  store ptr %call10, ptr %arg, align 8
  br label %while.body

while.end:                                        ; preds = %if.then
  %5 = load ptr, ptr %arg, align 8
  ret ptr %5
}