; Function Attrs: nounwind uwtable
define dso_local ptr @readArgFromStdin() local_unnamed_addr #1 {
entry:
  %buf = alloca [1024 x i8], align 16
  %call = tail call ptr @hi_sdsempty() #11
  br label %while.body

while.body:                                       ; preds = %if.end7, %entry
  %arg.0 = phi ptr [ %call, %entry ], [ %call10, %if.end7 ]
  %0 = load ptr, ptr @stdin, align 8
  %call1 = call i32 @fileno(ptr noundef %0) #11
  %call2 = call i64 @read(i32 noundef %call1, ptr noundef nonnull %buf, i64 noundef 1024) #11
  %conv = trunc i64 %call2 to i32
  switch i32 %conv, label %if.end7 [
    i32 0, label %while.end
    i32 -1, label %if.then6
  ]

if.then6:                                         ; preds = %while.body
  call void @perror(ptr noundef nonnull @.str) #13
  call void @exit(i32 noundef 1) #14
  unreachable

if.end7:                                          ; preds = %while.body
  %sext = shl i64 %call2, 32
  %conv9 = ashr exact i64 %sext, 32
  %call10 = call ptr @hi_sdscatlen(ptr noundef %arg.0, ptr noundef nonnull %buf, i64 noundef %conv9) #11
  br label %while.body

while.end:                                        ; preds = %while.body
  ret ptr %arg.0
}